; Function Attrs: mustprogress nounwind uwtable
define internal fastcc void @_ZL9printLineRN4llvm11raw_ostreamERKNS_5TwineEcNS_9StringRefE(ptr noundef nonnull align 8 dereferenceable(48) %0, ptr noundef nonnull align 8 dereferenceable(34) %1, i8 noundef signext range(i8 32, 46) %2, ptr %3, i64 %4) unnamed_addr #0 {
  %6 = load ptr, ptr %0, align 8
  %7 = getelementptr inbounds nuw i8, ptr %6, i64 80
  %8 = load ptr, ptr %7, align 8
  %9 = tail call noundef i64 %8(ptr noundef nonnull align 8 dereferenceable(48) %0) #12
  %10 = getelementptr inbounds nuw i8, ptr %0, i64 32
  %11 = load ptr, ptr %10, align 8
  %12 = getelementptr inbounds nuw i8, ptr %0, i64 16
  %13 = load ptr, ptr %12, align 8
  %14 = ptrtoint ptr %11 to i64
  %15 = ptrtoint ptr %13 to i64
  tail call void @_ZNK4llvm5Twine5printERNS_11raw_ostreamE(ptr noundef nonnull align 8 dereferenceable(34) %1, ptr noundef nonnull align 8 dereferenceable(48) %0) #12
  %16 = load ptr, ptr %0, align 8
  %17 = getelementptr inbounds nuw i8, ptr %16, i64 80
  %18 = load ptr, ptr %17, align 8
  %19 = tail call noundef i64 %18(ptr noundef nonnull align 8 dereferenceable(48) %0) #12
  %20 = load ptr, ptr %10, align 8
  %21 = load ptr, ptr %12, align 8
  %22 = ptrtoint ptr %20 to i64
  %23 = ptrtoint ptr %21 to i64
  %24 = add i64 %9, %14
  %25 = sub i64 %15, %24
  %.neg18 = add i64 %25, %19
  %.neg = add i64 %.neg18, %22
  %26 = sub i64 %.neg, %23
  %27 = sub i64 80, %4
  %28 = icmp ult i64 %26, %27
  br i1 %28, label %.lr.ph, label %._crit_edge

.lr.ph:                                           ; preds = %5
  %29 = getelementptr inbounds nuw i8, ptr %0, i64 24
  br label %30

30:                                               ; preds = %.lr.ph, %_ZN4llvm11raw_ostreamlsEc.exit
  %.020 = phi i64 [ %26, %.lr.ph ], [ %37, %_ZN4llvm11raw_ostreamlsEc.exit ]
  %31 = load ptr, ptr %10, align 8
  %32 = load ptr, ptr %29, align 8
  %.not.i = icmp ult ptr %31, %32
  br i1 %.not.i, label %35, label %33

33:                                               ; preds = %30
  %34 = tail call noundef nonnull align 8 dereferenceable(48) ptr @_ZN4llvm11raw_ostream5writeEh(ptr noundef nonnull align 8 dereferenceable(48) %0, i8 noundef zeroext %2) #12
  br label %_ZN4llvm11raw_ostreamlsEc.exit

35:                                               ; preds = %30
  %36 = getelementptr inbounds nuw i8, ptr %31, i64 1
  store ptr %36, ptr %10, align 8
  store i8 %2, ptr %31, align 1
  br label %_ZN4llvm11raw_ostreamlsEc.exit

_ZN4llvm11raw_ostreamlsEc.exit:                   ; preds = %33, %35
  %37 = add nuw i64 %.020, 1
  %38 = icmp ult i64 %37, %27
  br i1 %38, label %30, label %._crit_edge.loopexit, !llvm.loop !22

._crit_edge.loopexit:                             ; preds = %_ZN4llvm11raw_ostreamlsEc.exit
  %.pre = load ptr, ptr %10, align 8
  %.pre22 = ptrtoint ptr %.pre to i64
  br label %._crit_edge

._crit_edge:                                      ; preds = %._crit_edge.loopexit, %5
  %.pre-phi = phi i64 [ %.pre22, %._crit_edge.loopexit ], [ %22, %5 ]
  %39 = phi ptr [ %.pre, %._crit_edge.loopexit ], [ %20, %5 ]
  %40 = getelementptr inbounds nuw i8, ptr %0, i64 24
  %41 = load ptr, ptr %40, align 8
  %42 = ptrtoint ptr %41 to i64
  %43 = sub i64 %42, %.pre-phi
  %44 = icmp ugt i64 %4, %43
  br i1 %44, label %45, label %47

45:                                               ; preds = %._crit_edge
  %46 = tail call noundef nonnull align 8 dereferenceable(48) ptr @_ZN4llvm11raw_ostream5writeEPKcm(ptr noundef nonnull align 8 dereferenceable(48) %0, ptr noundef %3, i64 noundef %4) #12
  %.phi.trans.insert = getelementptr inbounds nuw i8, ptr %46, i64 32
  %.pre21 = load ptr, ptr %.phi.trans.insert, align 8
  br label %_ZN4llvm11raw_ostreamlsENS_9StringRefE.exit

47:                                               ; preds = %._crit_edge
  %.not.i10 = icmp eq i64 %4, 0
  br i1 %.not.i10, label %_ZN4llvm11raw_ostreamlsENS_9StringRefE.exit, label %48

48:                                               ; preds = %47
  tail call void @llvm.memcpy.p0.p0.i64(ptr align 1 %39, ptr align 1 %3, i64 %4, i1 false)
  %49 = load ptr, ptr %10, align 8
  %50 = getelementptr inbounds i8, ptr %49, i64 %4
  store ptr %50, ptr %10, align 8
  br label %_ZN4llvm11raw_ostreamlsENS_9StringRefE.exit

_ZN4llvm11raw_ostreamlsENS_9StringRefE.exit:      ; preds = %45, %47, %48
  %51 = phi ptr [ %.pre21, %45 ], [ %50, %48 ], [ %39, %47 ]
  %.0.i11 = phi ptr [ %46, %45 ], [ %0, %48 ], [ %0, %47 ]
  %52 = getelementptr inbounds nuw i8, ptr %.0.i11, i64 24
  %53 = load ptr, ptr %52, align 8
  %.not.i12 = icmp ult ptr %51, %53
  br i1 %.not.i12, label %56, label %54

54:                                               ; preds = %_ZN4llvm11raw_ostreamlsENS_9StringRefE.exit
  %55 = tail call noundef nonnull align 8 dereferenceable(48) ptr @_ZN4llvm11raw_ostream5writeEh(ptr noundef nonnull align 8 dereferenceable(48) %.0.i11, i8 noundef zeroext 10) #12
  br label %_ZN4llvm11raw_ostreamlsEc.exit14

56:                                               ; preds = %_ZN4llvm11raw_ostreamlsENS_9StringRefE.exit
  %57 = getelementptr inbounds nuw i8, ptr %.0.i11, i64 32
  %58 = getelementptr inbounds nuw i8, ptr %51, i64 1
  store ptr %58, ptr %57, align 8
  store i8 10, ptr %51, align 1
  br label %_ZN4llvm11raw_ostreamlsEc.exit14

_ZN4llvm11raw_ostreamlsEc.exit14:                 ; preds = %54, %56
  ret void
}